Certificate:
    Data:
        Version: 3 (0x2)
        Serial Number: 1 (0x1)
        Signature Algorithm: sha1WithRSAEncryption
        Issuer: C=PT, ST=LS, L=LS, O=GSR, CN=GSR CA/emailAddress=ist@tecnico.ulisboa.pt
        Validity
            Not Before: May 24 19:36:06 2017 GMT
            Not After : May 22 19:36:06 2027 GMT
        Subject: C=PT, ST=LS, L=LS, O=GSR, CN=server/emailAddress=ist@tecnico.ulisboa.pt
        Subject Public Key Info:
            Public Key Algorithm: rsaEncryption
            RSA Public Key: (1024 bit)
                Modulus (1024 bit):
                    00:e1:c0:26:b8:92:a5:c3:f9:23:82:cb:92:29:a1:
                    0a:82:9e:50:9c:fc:54:35:df:e3:09:e2:cd:79:a2:
                    be:98:fd:d9:13:99:89:21:6b:4e:33:28:fe:8c:78:
                    aa:51:c8:36:9a:d6:b9:88:02:cc:a1:5b:9e:cb:9e:
                    a4:e8:e9:0d:8c:6a:30:cb:ef:97:d8:ce:2c:a6:22:
                    3b:c1:91:f1:29:04:9e:e4:83:2a:b3:17:74:3e:cf:
                    d5:a4:cd:8e:d9:ad:b6:bf:ec:33:13:8e:be:e8:39:
                    04:76:5e:81:13:c1:6d:ff:2b:1e:7b:ca:2c:ef:d0:
                    78:c5:af:54:fb:00:1f:c2:4d
                Exponent: 65537 (0x10001)
        X509v3 extensions:
            X509v3 Basic Constraints: 
                CA:FALSE
            Netscape Cert Type: 
                SSL Server
            Netscape Comment: 
                Easy-RSA Generated Server Certificate
            X509v3 Subject Key Identifier: 
                9B:CE:B3:74:E2:37:D8:FE:F4:0B:C6:2C:26:E1:8D:84:0B:17:54:3B
            X509v3 Authority Key Identifier: 
                keyid:AB:EB:E3:1C:6B:47:D2:D1:1D:20:6C:7A:DE:5F:FA:FA:75:72:0F:1D
                DirName:/C=PT/ST=LS/L=LS/O=GSR/CN=GSR CA/emailAddress=ist@tecnico.ulisboa.pt
                serial:AD:D4:B0:CC:1B:3A:FC:3A

            X509v3 Extended Key Usage: 
                TLS Web Server Authentication
            X509v3 Key Usage: 
                Digital Signature, Key Encipherment
    Signature Algorithm: sha1WithRSAEncryption
        87:ca:1c:cc:9e:c5:6e:5f:05:b5:ab:15:b9:f8:f2:38:5d:80:
        5b:25:70:e6:8a:11:fe:94:b1:48:25:de:66:c5:fe:47:57:b5:
        33:9a:b6:4b:d9:8c:48:98:ef:8d:34:ea:11:03:65:b7:88:8b:
        4c:37:37:98:60:ad:f5:a6:01:2f:89:44:75:f5:5a:2d:83:6b:
        44:06:ac:eb:9f:ad:a3:dc:3e:1b:33:a5:a1:c6:96:39:38:bd:
        06:6b:ce:da:04:85:37:40:fd:2a:cb:da:2f:13:c7:3f:a1:85:
        8f:3d:0b:fb:6e:ed:2f:48:78:b2:b3:bf:91:b0:bf:df:d9:22:
        9a:12
-----BEGIN CERTIFICATE-----
MIIDjTCCAvagAwIBAgIBATANBgkqhkiG9w0BAQUFADBtMQswCQYDVQQGEwJQVDEL
MAkGA1UECBMCTFMxCzAJBgNVBAcTAkxTMQwwCgYDVQQKEwNHU1IxDzANBgNVBAMT
BkdTUiBDQTElMCMGCSqGSIb3DQEJARYWaXN0QHRlY25pY28udWxpc2JvYS5wdDAe
Fw0xNzA1MjQxOTM2MDZaFw0yNzA1MjIxOTM2MDZaMG0xCzAJBgNVBAYTAlBUMQsw
CQYDVQQIEwJMUzELMAkGA1UEBxMCTFMxDDAKBgNVBAoTA0dTUjEPMA0GA1UEAxMG
c2VydmVyMSUwIwYJKoZIhvcNAQkBFhZpc3RAdGVjbmljby51bGlzYm9hLnB0MIGf
MA0GCSqGSIb3DQEBAQUAA4GNADCBiQKBgQDhwCa4kqXD+SOCy5IpoQqCnlCc/FQ1
3+MJ4s15or6Y/dkTmYkha04zKP6MeKpRyDaa1rmIAsyhW57LnqTo6Q2MajDL75fY
ziymIjvBkfEpBJ7kgyqzF3Q+z9WkzY7Zrba/7DMTjr7oOQR2XoETwW3/Kx57yizv
0HjFr1T7AB/CTQIDAQABo4IBOzCCATcwCQYDVR0TBAIwADARBglghkgBhvhCAQEE
BAMCBkAwNAYJYIZIAYb4QgENBCcWJUVhc3ktUlNBIEdlbmVyYXRlZCBTZXJ2ZXIg
Q2VydGlmaWNhdGUwHQYDVR0OBBYEFJvOs3TiN9j+9AvGLCbhjYQLF1Q7MIGfBgNV
HSMEgZcwgZSAFKvr4xxrR9LRHSBset5f+vp1cg8doXGkbzBtMQswCQYDVQQGEwJQ
VDELMAkGA1UECBMCTFMxCzAJBgNVBAcTAkxTMQwwCgYDVQQKEwNHU1IxDzANBgNV
BAMTBkdTUiBDQTElMCMGCSqGSIb3DQEJARYWaXN0QHRlY25pY28udWxpc2JvYS5w
dIIJAK3UsMwbOvw6MBMGA1UdJQQMMAoGCCsGAQUFBwMBMAsGA1UdDwQEAwIFoDAN
BgkqhkiG9w0BAQUFAAOBgQCHyhzMnsVuXwW1qxW5+PI4XYBbJXDmihH+lLFIJd5m
xf5HV7UzmrZL2YxImO+NNOoRA2W3iItMNzeYYK31pgEviUR19Votg2tEBqzrn62j
3D4bM6WhxpY5OL0Ga87aBIU3QP0qy9ovE8c/oYWPPQv7bu0vSHiys7+RsL/f2SKa
Eg==
-----END CERTIFICATE-----
